target datalayout = "e-m:e-p270:32:32-p271:32:32-p272:64:64-i64:64-i128:128-f80:128-n8:16:32:64-S128"
target triple = "x86_64-pc-linux-gnu"

%struct.EncoderSession = type { i32, i32, i32, i32, ptr, ptr, ptr, i32, i32, i32, i64, i64, i64, i64, i32, i64, [16 x i8], %struct.SampleInfo, i32, %union.anon.4, ptr, ptr, ptr, double, double }
%struct.SampleInfo = type { i32, i32, i32, i32, i32, i32, i32, i32 }
%union.anon.4 = type { %struct.anon.6 }
%struct.anon.6 = type { ptr, %struct.FLACDecoderData }
%struct.FLACDecoderData = type { i64, ptr, i32, i64, [1024 x ptr], i64, i32 }

@stderr = external global ptr, align 8
@.str.99 = private unnamed_addr constant [1 x i8] zeroinitializer, align 1
@.str.152 = private unnamed_addr constant [9 x i8] c"\0A%s: %s\0A\00", align 1
@.str.154 = private unnamed_addr constant [16 x i8] c"%*s state = %s\0A\00", align 1
@FLAC__StreamEncoderStateString = external constant [0 x ptr], align 8
@.str.155 = private unnamed_addr constant [83 x i8] c"\0AAn error occurred while writing; the most common cause is that the disk is full.\0A\00", align 1

; Function Attrs: nounwind sspstrong uwtable
define internal void @print_error_with_state(ptr noundef %0, ptr noundef %1) #0 {
  %3 = alloca ptr, align 8
  %4 = alloca ptr, align 8
  %5 = alloca i32, align 4
  %6 = alloca ptr, align 8
  store ptr %0, ptr %3, align 8, !tbaa !48
  store ptr %1, ptr %4, align 8, !tbaa !11
  call void @llvm.lifetime.start.p0(i64 4, ptr %5) #14
  %7 = load ptr, ptr %3, align 8, !tbaa !48
  %8 = getelementptr inbounds nuw %struct.EncoderSession, ptr %7, i32 0, i32 4
  %9 = load ptr, ptr %8, align 8, !tbaa !24
  %10 = call i64 @strlen(ptr noundef %9) #15
  %11 = add i64 %10, 1
  %12 = trunc i64 %11 to i32
  store i32 %12, ptr %5, align 4, !tbaa !13
  call void @llvm.lifetime.start.p0(i64 8, ptr %6) #14
  %13 = load ptr, ptr @stderr, align 8, !tbaa !4
  %14 = load ptr, ptr %3, align 8, !tbaa !48
  %15 = getelementptr inbounds nuw %struct.EncoderSession, ptr %14, i32 0, i32 4
  %16 = load ptr, ptr %15, align 8, !tbaa !24
  %17 = load ptr, ptr %4, align 8, !tbaa !11
  call void (ptr, i32, ptr, ...) @flac__utils_printf(ptr noundef %13, i32 noundef 1, ptr noundef @.str.152, ptr noundef %16, ptr noundef %17)
  %18 = load ptr, ptr %3, align 8, !tbaa !48
  %19 = getelementptr inbounds nuw %struct.EncoderSession, ptr %18, i32 0, i32 20
  %20 = load ptr, ptr %19, align 8, !tbaa !66
  %21 = call ptr @FLAC__stream_encoder_get_resolved_state_string(ptr noundef %20)
  store ptr %21, ptr %6, align 8, !tbaa !11
  %22 = load ptr, ptr @stderr, align 8, !tbaa !4
  %23 = load i32, ptr %5, align 4, !tbaa !13
  %24 = load ptr, ptr %6, align 8, !tbaa !11
  call void (ptr, i32, ptr, ...) @flac__utils_printf(ptr noundef %22, i32 noundef 1, ptr noundef @.str.154, i32 noundef %23, ptr noundef @.str.99, ptr noundef %24)
  %25 = load ptr, ptr %6, align 8, !tbaa !11
  %26 = load ptr, ptr getelementptr inbounds ([0 x ptr], ptr @FLAC__StreamEncoderStateString, i64 0, i64 5), align 8, !tbaa !11
  %27 = call i32 @strcmp(ptr noundef %25, ptr noundef %26) #15
  %28 = icmp eq i32 0, %27
  br i1 %28, label %29, label %31

29:                                               ; preds = %2
  %30 = load ptr, ptr @stderr, align 8, !tbaa !4
  call void (ptr, i32, ptr, ...) @flac__utils_printf(ptr noundef %30, i32 noundef 1, ptr noundef @.str.155)
  br label %31

31:                                               ; preds = %29, %2
  call void @llvm.lifetime.end.p0(i64 8, ptr %6) #14
  call void @llvm.lifetime.end.p0(i64 4, ptr %5) #14
  ret void
}