; Function Attrs: nounwind sspstrong uwtable
define internal fastcc void @print_error_with_state(ptr noundef readonly captures(none) %0, ptr noundef %1) unnamed_addr #0 {
  %3 = getelementptr inbounds nuw i8, ptr %0, i64 16
  %4 = load ptr, ptr %3, align 8, !tbaa !25
  %5 = tail call i64 @strlen(ptr noundef nonnull dereferenceable(1) %4) #23
  %6 = trunc i64 %5 to i32
  %7 = add i32 %6, 1
  %8 = load ptr, ptr @stderr, align 8, !tbaa !33
  tail call void (ptr, i32, ptr, ...) @flac__utils_printf(ptr noundef %8, i32 noundef 1, ptr noundef nonnull @.str.152, ptr noundef nonnull %4, ptr noundef %1) #20
  %9 = getelementptr inbounds nuw i8, ptr %0, i64 8408
  %10 = load ptr, ptr %9, align 8, !tbaa !34
  %11 = tail call ptr @FLAC__stream_encoder_get_resolved_state_string(ptr noundef %10) #20
  %12 = load ptr, ptr @stderr, align 8, !tbaa !33
  tail call void (ptr, i32, ptr, ...) @flac__utils_printf(ptr noundef %12, i32 noundef 1, ptr noundef nonnull @.str.154, i32 noundef %7, ptr noundef nonnull @.str.99, ptr noundef %11) #20
  %13 = load ptr, ptr getelementptr inbounds nuw (i8, ptr @FLAC__StreamEncoderStateString, i64 40), align 8, !tbaa !42
  %14 = tail call i32 @strcmp(ptr noundef nonnull dereferenceable(1) %11, ptr noundef nonnull dereferenceable(1) %13) #23
  %15 = icmp eq i32 %14, 0
  br i1 %15, label %16, label %18

16:                                               ; preds = %2
  %17 = load ptr, ptr @stderr, align 8, !tbaa !33
  tail call void (ptr, i32, ptr, ...) @flac__utils_printf(ptr noundef %17, i32 noundef 1, ptr noundef nonnull @.str.155) #20
  br label %18

18:                                               ; preds = %16, %2
  ret void
}